target datalayout = "e-m:e-p270:32:32-p271:32:32-p272:64:64-i64:64-i128:128-f80:128-n8:16:32:64-S128"
target triple = "x86_64-pc-linux-gnu"

%"class.google::logging::internal::CheckOpMessageBuilder" = type { ptr }

; Function Attrs: mustprogress nounwind uwtable
define void @_ZN6google7logging8internal21CheckOpMessageBuilderD2Ev(ptr noundef nonnull align 8 dereferenceable(8) %0) unnamed_addr #2 align 2 {
  %2 = alloca ptr, align 8
  store ptr %0, ptr %2, align 8, !tbaa !249
  %3 = load ptr, ptr %2, align 8
  %4 = getelementptr inbounds nuw %"class.google::logging::internal::CheckOpMessageBuilder", ptr %3, i32 0, i32 0
  %5 = load ptr, ptr %4, align 8, !tbaa !251
  %6 = icmp eq ptr %5, null
  br i1 %6, label %11, label %7

7:                                                ; preds = %1
  %8 = load ptr, ptr %5, align 8, !tbaa !15
  %9 = getelementptr inbounds ptr, ptr %8, i64 1
  %10 = load ptr, ptr %9, align 8
  call void %10(ptr noundef nonnull align 8 dereferenceable(112) %5) #5
  br label %11

11:                                               ; preds = %7, %1
  ret void
}