; Function Attrs: mustprogress nounwind uwtable
define void @_ZN6google7logging8internal21CheckOpMessageBuilderD2Ev(ptr noundef nonnull readonly align 8 captures(none) dereferenceable(8) %0) unnamed_addr #2 align 2 {
  %2 = load ptr, ptr %0, align 8, !tbaa !314
  %3 = icmp eq ptr %2, null
  br i1 %3, label %8, label %4

4:                                                ; preds = %1
  %5 = load ptr, ptr %2, align 8, !tbaa !3
  %6 = getelementptr inbounds nuw i8, ptr %5, i64 8
  %7 = load ptr, ptr %6, align 8
  tail call void %7(ptr noundef nonnull align 8 dereferenceable(112) %2) #49
  br label %8

8:                                                ; preds = %4, %1
  ret void
}